; Function Attrs: mustprogress uwtable
define noundef signext i8 @ucal_isSet_75(ptr noundef %cal, i32 noundef %field) local_unnamed_addr #1 {
entry:
  %or.cond = icmp ugt i32 %field, 23
  br i1 %or.cond, label %return, label %if.end

if.end:                                           ; preds = %entry
  %call = tail call noundef signext i8 @_ZNK6icu_758Calendar5isSetE19UCalendarDateFields(ptr noundef nonnull align 8 dereferenceable(618) %cal, i32 noundef %field)
  br label %return

return:                                           ; preds = %entry, %if.end
  %retval.0 = phi i8 [ %call, %if.end ], [ 0, %entry ]
  ret i8 %retval.0
}